target datalayout = "e-m:e-p270:32:32-p271:32:32-p272:64:64-i64:64-i128:128-f80:128-n8:16:32:64-S128"
target triple = "x86_64-pc-linux-gnu"

%struct.AVTXContext = type { i32, i32, ptr, ptr, ptr, ptr, [4 x ptr], i32, [4 x ptr], ptr, i32, i64, i32, float, double, ptr }

; Function Attrs: nounwind uwtable
define internal void @ff_tx_dctI_float_c(ptr noundef %0, ptr noundef %1, ptr noundef %2, i64 noundef %3) #4 {
  %5 = alloca ptr, align 8
  %6 = alloca ptr, align 8
  %7 = alloca ptr, align 8
  %8 = alloca i64, align 8
  %9 = alloca ptr, align 8
  %10 = alloca ptr, align 8
  %11 = alloca i32, align 4
  %12 = alloca ptr, align 8
  %13 = alloca i32, align 4
  store ptr %0, ptr %5, align 8, !tbaa !17
  store ptr %1, ptr %6, align 8, !tbaa !8
  store ptr %2, ptr %7, align 8, !tbaa !8
  store i64 %3, ptr %8, align 8, !tbaa !30
  call void @llvm.lifetime.start.p0(i64 8, ptr %9) #10
  %14 = load ptr, ptr %6, align 8, !tbaa !8
  store ptr %14, ptr %9, align 8, !tbaa !39
  call void @llvm.lifetime.start.p0(i64 8, ptr %10) #10
  %15 = load ptr, ptr %7, align 8, !tbaa !8
  store ptr %15, ptr %10, align 8, !tbaa !39
  call void @llvm.lifetime.start.p0(i64 4, ptr %11) #10
  %16 = load ptr, ptr %5, align 8, !tbaa !17
  %17 = getelementptr inbounds nuw %struct.AVTXContext, ptr %16, i32 0, i32 0
  %18 = load i32, ptr %17, align 8, !tbaa !21
  %19 = sub nsw i32 %18, 1
  store i32 %19, ptr %11, align 4, !tbaa !4
  call void @llvm.lifetime.start.p0(i64 8, ptr %12) #10
  %20 = load ptr, ptr %5, align 8, !tbaa !17
  %21 = getelementptr inbounds nuw %struct.AVTXContext, ptr %20, i32 0, i32 4
  %22 = load ptr, ptr %21, align 8, !tbaa !67
  store ptr %22, ptr %12, align 8, !tbaa !39
  %23 = load i64, ptr %8, align 8, !tbaa !30
  %24 = udiv i64 %23, 4
  store i64 %24, ptr %8, align 8, !tbaa !30
  call void @llvm.lifetime.start.p0(i64 4, ptr %13) #10
  store i32 0, ptr %13, align 4, !tbaa !4
  br label %25

25:                                               ; preds = %49, %4
  %26 = load i32, ptr %13, align 4, !tbaa !4
  %27 = load i32, ptr %11, align 4, !tbaa !4
  %28 = icmp slt i32 %26, %27
  br i1 %28, label %30, label %29

29:                                               ; preds = %25
  call void @llvm.lifetime.end.p0(i64 4, ptr %13) #10
  br label %52

30:                                               ; preds = %25
  %31 = load ptr, ptr %10, align 8, !tbaa !39
  %32 = load i32, ptr %13, align 4, !tbaa !4
  %33 = sext i32 %32 to i64
  %34 = load i64, ptr %8, align 8, !tbaa !30
  %35 = mul nsw i64 %33, %34
  %36 = getelementptr inbounds float, ptr %31, i64 %35
  %37 = load float, ptr %36, align 4, !tbaa !36
  %38 = load ptr, ptr %12, align 8, !tbaa !39
  %39 = load i32, ptr %11, align 4, !tbaa !4
  %40 = mul nsw i32 2, %39
  %41 = load i32, ptr %13, align 4, !tbaa !4
  %42 = sub nsw i32 %40, %41
  %43 = sext i32 %42 to i64
  %44 = getelementptr inbounds float, ptr %38, i64 %43
  store float %37, ptr %44, align 4, !tbaa !36
  %45 = load ptr, ptr %12, align 8, !tbaa !39
  %46 = load i32, ptr %13, align 4, !tbaa !4
  %47 = sext i32 %46 to i64
  %48 = getelementptr inbounds float, ptr %45, i64 %47
  store float %37, ptr %48, align 4, !tbaa !36
  br label %49

49:                                               ; preds = %30
  %50 = load i32, ptr %13, align 4, !tbaa !4
  %51 = add nsw i32 %50, 1
  store i32 %51, ptr %13, align 4, !tbaa !4
  br label %25, !llvm.loop !167

52:                                               ; preds = %29
  %53 = load ptr, ptr %10, align 8, !tbaa !39
  %54 = load i32, ptr %11, align 4, !tbaa !4
  %55 = sext i32 %54 to i64
  %56 = load i64, ptr %8, align 8, !tbaa !30
  %57 = mul nsw i64 %55, %56
  %58 = getelementptr inbounds float, ptr %53, i64 %57
  %59 = load float, ptr %58, align 4, !tbaa !36
  %60 = load ptr, ptr %12, align 8, !tbaa !39
  %61 = load i32, ptr %11, align 4, !tbaa !4
  %62 = sext i32 %61 to i64
  %63 = getelementptr inbounds float, ptr %60, i64 %62
  store float %59, ptr %63, align 4, !tbaa !36
  %64 = load ptr, ptr %5, align 8, !tbaa !17
  %65 = getelementptr inbounds nuw %struct.AVTXContext, ptr %64, i32 0, i32 6
  %66 = getelementptr inbounds [4 x ptr], ptr %65, i64 0, i64 0
  %67 = load ptr, ptr %66, align 8, !tbaa !8
  %68 = load ptr, ptr %5, align 8, !tbaa !17
  %69 = getelementptr inbounds nuw %struct.AVTXContext, ptr %68, i32 0, i32 5
  %70 = load ptr, ptr %69, align 8, !tbaa !68
  %71 = getelementptr inbounds %struct.AVTXContext, ptr %70, i64 0
  %72 = load ptr, ptr %9, align 8, !tbaa !39
  %73 = load ptr, ptr %12, align 8, !tbaa !39
  call void %67(ptr noundef %71, ptr noundef %72, ptr noundef %73, i64 noundef 4)
  call void @llvm.lifetime.end.p0(i64 8, ptr %12) #10
  call void @llvm.lifetime.end.p0(i64 4, ptr %11) #10
  call void @llvm.lifetime.end.p0(i64 8, ptr %10) #10
  call void @llvm.lifetime.end.p0(i64 8, ptr %9) #10
  ret void
}